; Function Attrs: nounwind uwtable
define ptr @l_Lean_Server_RequestM_findInfoTreeAtPos___lambda__1(ptr noundef %0) #1 {
  %2 = ptrtoint ptr %0 to i64
  %3 = and i64 %2, 1
  %.not.i28 = icmp eq i64 %3, 0
  br i1 %.not.i28, label %7, label %4

4:                                                ; preds = %1
  %5 = lshr i64 %2, 1
  %6 = trunc i64 %5 to i32
  br label %lean_obj_tag.exit

7:                                                ; preds = %1
  %8 = getelementptr i8, ptr %0, i64 4
  %.val.i = load i32, ptr %8, align 4
  %9 = lshr i32 %.val.i, 24
  br label %lean_obj_tag.exit

lean_obj_tag.exit:                                ; preds = %4, %7
  %.0.i = phi i32 [ %6, %4 ], [ %9, %7 ]
  %10 = icmp eq i32 %.0.i, 0
  br i1 %10, label %73, label %11

11:                                               ; preds = %lean_obj_tag.exit
  %.val = load i32, ptr %0, align 4, !tbaa !4
  %12 = icmp eq i32 %.val, 1
  %13 = getelementptr inbounds nuw i8, ptr %0, i64 8
  %14 = load ptr, ptr %13, align 8, !tbaa !9
  br i1 %12, label %15, label %35

15:                                               ; preds = %11
  %16 = getelementptr inbounds nuw i8, ptr %14, i64 16
  %17 = load ptr, ptr %16, align 8, !tbaa !9
  %18 = ptrtoint ptr %17 to i64
  %19 = and i64 %18, 1
  %.not39 = icmp eq i64 %19, 0
  br i1 %.not39, label %20, label %lean_inc.exit23

20:                                               ; preds = %15
  %.val.i29 = load i32, ptr %17, align 4, !tbaa !4
  %21 = icmp sgt i32 %.val.i29, 0
  br i1 %21, label %22, label %24, !prof !11

22:                                               ; preds = %20
  %23 = add nuw i32 %.val.i29, 1
  store i32 %23, ptr %17, align 4, !tbaa !4
  br label %lean_inc.exit23

24:                                               ; preds = %20
  %.not.i30 = icmp eq i32 %.val.i29, 0
  br i1 %.not.i30, label %lean_inc.exit23, label %25

25:                                               ; preds = %24
  tail call void @lean_inc_ref_cold(ptr noundef nonnull %17) #6
  br label %lean_inc.exit23

lean_inc.exit23:                                  ; preds = %25, %24, %22, %15
  %26 = ptrtoint ptr %14 to i64
  %27 = and i64 %26, 1
  %.not40 = icmp eq i64 %27, 0
  br i1 %.not40, label %28, label %lean_dec.exit21

28:                                               ; preds = %lean_inc.exit23
  %29 = load i32, ptr %14, align 4, !tbaa !4
  %30 = icmp sgt i32 %29, 1
  br i1 %30, label %31, label %33, !prof !11

31:                                               ; preds = %28
  %32 = add nsw i32 %29, -1
  store i32 %32, ptr %14, align 4, !tbaa !4
  br label %lean_dec.exit21

33:                                               ; preds = %28
  %.not.i = icmp eq i32 %29, 0
  br i1 %.not.i, label %lean_dec.exit21, label %34

34:                                               ; preds = %33
  tail call void @lean_dec_ref_cold(ptr noundef nonnull %14) #6
  br label %lean_dec.exit21

lean_dec.exit21:                                  ; preds = %34, %33, %31, %lean_inc.exit23
  store ptr %17, ptr %13, align 8, !tbaa !9
  br label %73

35:                                               ; preds = %11
  %36 = ptrtoint ptr %14 to i64
  %37 = and i64 %36, 1
  %.not = icmp eq i64 %37, 0
  br i1 %.not, label %38, label %lean_inc.exit22

38:                                               ; preds = %35
  %.val.i31 = load i32, ptr %14, align 4, !tbaa !4
  %39 = icmp sgt i32 %.val.i31, 0
  br i1 %39, label %40, label %42, !prof !11

40:                                               ; preds = %38
  %41 = add nuw i32 %.val.i31, 1
  store i32 %41, ptr %14, align 4, !tbaa !4
  br label %lean_inc.exit22

42:                                               ; preds = %38
  %.not.i32 = icmp eq i32 %.val.i31, 0
  br i1 %.not.i32, label %lean_inc.exit22, label %43

43:                                               ; preds = %42
  tail call void @lean_inc_ref_cold(ptr noundef nonnull %14) #6
  br label %lean_inc.exit22

lean_inc.exit22:                                  ; preds = %43, %42, %40, %35
  br i1 %.not.i28, label %44, label %lean_dec.exit20

44:                                               ; preds = %lean_inc.exit22
  %45 = load i32, ptr %0, align 4, !tbaa !4
  %46 = icmp sgt i32 %45, 1
  br i1 %46, label %47, label %49, !prof !11

47:                                               ; preds = %44
  %48 = add nsw i32 %45, -1
  store i32 %48, ptr %0, align 4, !tbaa !4
  br label %lean_dec.exit20

49:                                               ; preds = %44
  %.not.i24 = icmp eq i32 %45, 0
  br i1 %.not.i24, label %lean_dec.exit20, label %50

50:                                               ; preds = %49
  tail call void @lean_dec_ref_cold(ptr noundef nonnull %0) #6
  br label %lean_dec.exit20

lean_dec.exit20:                                  ; preds = %50, %49, %47, %lean_inc.exit22
  %51 = getelementptr inbounds nuw i8, ptr %14, i64 16
  %52 = load ptr, ptr %51, align 8, !tbaa !9
  %53 = ptrtoint ptr %52 to i64
  %54 = and i64 %53, 1
  %.not38 = icmp eq i64 %54, 0
  br i1 %.not38, label %55, label %lean_inc.exit

55:                                               ; preds = %lean_dec.exit20
  %.val.i34 = load i32, ptr %52, align 4, !tbaa !4
  %56 = icmp sgt i32 %.val.i34, 0
  br i1 %56, label %57, label %59, !prof !11

57:                                               ; preds = %55
  %58 = add nuw i32 %.val.i34, 1
  store i32 %58, ptr %52, align 4, !tbaa !4
  br label %lean_inc.exit

59:                                               ; preds = %55
  %.not.i35 = icmp eq i32 %.val.i34, 0
  br i1 %.not.i35, label %lean_inc.exit, label %60

60:                                               ; preds = %59
  tail call void @lean_inc_ref_cold(ptr noundef nonnull %52) #6
  br label %lean_inc.exit

lean_inc.exit:                                    ; preds = %60, %59, %57, %lean_dec.exit20
  br i1 %.not, label %61, label %lean_dec.exit

61:                                               ; preds = %lean_inc.exit
  %62 = load i32, ptr %14, align 4, !tbaa !4
  %63 = icmp sgt i32 %62, 1
  br i1 %63, label %64, label %66, !prof !11

64:                                               ; preds = %61
  %65 = add nsw i32 %62, -1
  store i32 %65, ptr %14, align 4, !tbaa !4
  br label %lean_dec.exit

66:                                               ; preds = %61
  %.not.i26 = icmp eq i32 %62, 0
  br i1 %.not.i26, label %lean_dec.exit, label %67

67:                                               ; preds = %66
  tail call void @lean_dec_ref_cold(ptr noundef nonnull %14) #6
  br label %lean_dec.exit

lean_dec.exit:                                    ; preds = %67, %66, %64, %lean_inc.exit
  tail call void @lean_inc_heartbeat() #6
  %68 = tail call noalias ptr @mi_malloc_small(i64 noundef 16) #6
  %69 = icmp eq ptr %68, null
  br i1 %69, label %70, label %lean_alloc_ctor.exit

70:                                               ; preds = %lean_dec.exit
  tail call void @lean_internal_panic_out_of_memory() #7
  unreachable

lean_alloc_ctor.exit:                             ; preds = %lean_dec.exit
  %71 = getelementptr inbounds nuw i8, ptr %68, i64 4
  store i32 1, ptr %68, align 4, !tbaa !4
  store i32 16842768, ptr %71, align 4
  %72 = getelementptr inbounds nuw i8, ptr %68, i64 8
  store ptr %52, ptr %72, align 8, !tbaa !9
  br label %73

73:                                               ; preds = %lean_obj_tag.exit, %lean_dec.exit21, %lean_alloc_ctor.exit
  %.0 = phi ptr [ %0, %lean_dec.exit21 ], [ %68, %lean_alloc_ctor.exit ], [ inttoptr (i64 1 to ptr), %lean_obj_tag.exit ]
  ret ptr %.0
}